; Function Attrs: null_pointer_is_valid sspstrong uwtable
define internal i32 @dissect_ldap_BindResponse_resultCode(i1 noundef zeroext %0, ptr noundef %1, i32 noundef %2, ptr noundef %3, ptr noundef %4, i32 noundef %5) #0 {
  %7 = tail call i32 @dissect_ber_integer(i1 noundef zeroext %0, ptr noundef %3, ptr noundef %4, ptr noundef %1, i32 noundef %2, i32 noundef %5, ptr noundef nonnull @result)
  %8 = getelementptr inbounds nuw i8, ptr %3, i64 16
  %.b3.i = load i1, ptr @do_protocolop, align 1
  br i1 %.b3.i, label %9, label %ldap_do_protocolop.exit

9:                                                ; preds = %6
  %10 = load ptr, ptr %8, align 8
  %11 = load i32, ptr @ProtocolOp, align 4
  %12 = tail call ptr @val_to_str(i32 noundef %11, ptr noundef nonnull @ldap_ProtocolOp_choice_vals, ptr noundef nonnull @.str.874)
  %13 = getelementptr inbounds nuw i8, ptr %10, i64 8
  %14 = load ptr, ptr %13, align 8
  %15 = load i32, ptr @MessageID, align 4
  tail call void (ptr, i32, ptr, ...) @col_append_fstr(ptr noundef %14, i32 noundef 25, ptr noundef nonnull @.str.875, ptr noundef %12, i32 noundef %15)
  %16 = load ptr, ptr @ldm_tree, align 8
  %.not.i = icmp eq ptr %16, null
  br i1 %.not.i, label %19, label %17

17:                                               ; preds = %9
  %18 = load i32, ptr @MessageID, align 4
  tail call void (ptr, ptr, ...) @proto_item_append_text(ptr noundef nonnull %16, ptr noundef nonnull @.str.876, ptr noundef %12, i32 noundef %18)
  br label %19

19:                                               ; preds = %17, %9
  store i1 false, ptr @do_protocolop, align 1
  br label %ldap_do_protocolop.exit

ldap_do_protocolop.exit:                          ; preds = %6, %19
  %20 = load i32, ptr @result, align 4
  %21 = tail call ptr @val_to_str(i32 noundef %20, ptr noundef nonnull @ldap_BindResponse_resultCode_vals, ptr noundef nonnull @.str.883)
  %22 = load ptr, ptr %8, align 8
  %23 = getelementptr inbounds nuw i8, ptr %22, i64 8
  %24 = load ptr, ptr %23, align 8
  tail call void (ptr, i32, ptr, ...) @col_append_fstr(ptr noundef %24, i32 noundef 25, ptr noundef nonnull @.str.879, ptr noundef %21)
  %25 = load ptr, ptr @ldm_tree, align 8
  %.not = icmp eq ptr %25, null
  br i1 %.not, label %27, label %26

26:                                               ; preds = %ldap_do_protocolop.exit
  tail call void (ptr, ptr, ...) @proto_item_append_text(ptr noundef nonnull %25, ptr noundef nonnull @.str.872, ptr noundef %21)
  br label %27

27:                                               ; preds = %26, %ldap_do_protocolop.exit
  ret i32 %7
}